target datalayout = "e-m:e-p270:32:32-p271:32:32-p272:64:64-i64:64-i128:128-f80:128-n8:16:32:64-S128"
target triple = "x86_64-pc-linux-gnu"

@PyExc_InterpreterError = external global ptr, align 8
@.str.38 = private unnamed_addr constant [42 x i8] c"cannot %s current interpreter (not ready)\00", align 1
@.str.39 = private unnamed_addr constant [37 x i8] c"cannot %s interpreter %R (not ready)\00", align 1
@.str.40 = private unnamed_addr constant [43 x i8] c"cannot %s unrecognized current interpreter\00", align 1
@.str.41 = private unnamed_addr constant [38 x i8] c"cannot %s unrecognized interpreter %R\00", align 1

; Function Attrs: nounwind uwtable
define internal i64 @get_whence(ptr noundef %0) #0 {
  %2 = alloca ptr, align 8
  store ptr %0, ptr %2, align 8, !tbaa !15
  %3 = load ptr, ptr %2, align 8, !tbaa !15
  %4 = call i64 @_PyInterpreterState_GetWhence(ptr noundef %3)
  ret i64 %4
}

; Function Attrs: nounwind uwtable
define internal ptr @resolve_interp(ptr noundef %0, i32 noundef %1, i32 noundef %2, ptr noundef %3) #0 {
  %5 = alloca ptr, align 8
  %6 = alloca ptr, align 8
  %7 = alloca i32, align 4
  %8 = alloca i32, align 4
  %9 = alloca ptr, align 8
  %10 = alloca ptr, align 8
  %11 = alloca i32, align 4
  store ptr %0, ptr %6, align 8, !tbaa !3
  store i32 %1, ptr %7, align 4, !tbaa !11
  store i32 %2, ptr %8, align 4, !tbaa !11
  store ptr %3, ptr %9, align 8, !tbaa !9
  call void @llvm.lifetime.start.p0(i64 8, ptr %10) #8
  %12 = load ptr, ptr %6, align 8, !tbaa !3
  %13 = icmp eq ptr %12, null
  br i1 %13, label %14, label %16

14:                                               ; preds = %4
  %15 = call ptr @PyInterpreterState_Get()
  store ptr %15, ptr %10, align 8, !tbaa !15
  br label %23

16:                                               ; preds = %4
  %17 = load ptr, ptr %6, align 8, !tbaa !3
  %18 = call ptr @_PyInterpreterState_LookUpIDObject(ptr noundef %17)
  store ptr %18, ptr %10, align 8, !tbaa !15
  %19 = load ptr, ptr %10, align 8, !tbaa !15
  %20 = icmp eq ptr %19, null
  br i1 %20, label %21, label %22

21:                                               ; preds = %16
  store ptr null, ptr %5, align 8
  store i32 1, ptr %11, align 4
  br label %65

22:                                               ; preds = %16
  br label %23

23:                                               ; preds = %22, %14
  %24 = load i32, ptr %8, align 4, !tbaa !11
  %25 = icmp ne i32 %24, 0
  br i1 %25, label %26, label %43

26:                                               ; preds = %23
  %27 = load ptr, ptr %10, align 8, !tbaa !15
  %28 = call i32 @_PyInterpreterState_IsReady(ptr noundef %27)
  %29 = icmp ne i32 %28, 0
  br i1 %29, label %43, label %30

30:                                               ; preds = %26
  %31 = load ptr, ptr %6, align 8, !tbaa !3
  %32 = icmp eq ptr %31, null
  br i1 %32, label %33, label %37

33:                                               ; preds = %30
  %34 = load ptr, ptr @PyExc_InterpreterError, align 8, !tbaa !3
  %35 = load ptr, ptr %9, align 8, !tbaa !9
  %36 = call ptr (ptr, ptr, ...) @PyErr_Format(ptr noundef %34, ptr noundef @.str.38, ptr noundef %35)
  br label %42

37:                                               ; preds = %30
  %38 = load ptr, ptr @PyExc_InterpreterError, align 8, !tbaa !3
  %39 = load ptr, ptr %9, align 8, !tbaa !9
  %40 = load ptr, ptr %6, align 8, !tbaa !3
  %41 = call ptr (ptr, ptr, ...) @PyErr_Format(ptr noundef %38, ptr noundef @.str.39, ptr noundef %39, ptr noundef %40)
  br label %42

42:                                               ; preds = %37, %33
  store ptr null, ptr %5, align 8
  store i32 1, ptr %11, align 4
  br label %65

43:                                               ; preds = %26, %23
  %44 = load i32, ptr %7, align 4, !tbaa !11
  %45 = icmp ne i32 %44, 0
  br i1 %45, label %46, label %63

46:                                               ; preds = %43
  %47 = load ptr, ptr %10, align 8, !tbaa !15
  %48 = call i64 @get_whence(ptr noundef %47)
  %49 = icmp ne i64 %48, 5
  br i1 %49, label %50, label %63

50:                                               ; preds = %46
  %51 = load ptr, ptr %6, align 8, !tbaa !3
  %52 = icmp eq ptr %51, null
  br i1 %52, label %53, label %57

53:                                               ; preds = %50
  %54 = load ptr, ptr @PyExc_InterpreterError, align 8, !tbaa !3
  %55 = load ptr, ptr %9, align 8, !tbaa !9
  %56 = call ptr (ptr, ptr, ...) @PyErr_Format(ptr noundef %54, ptr noundef @.str.40, ptr noundef %55)
  br label %62

57:                                               ; preds = %50
  %58 = load ptr, ptr @PyExc_InterpreterError, align 8, !tbaa !3
  %59 = load ptr, ptr %9, align 8, !tbaa !9
  %60 = load ptr, ptr %6, align 8, !tbaa !3
  %61 = call ptr (ptr, ptr, ...) @PyErr_Format(ptr noundef %58, ptr noundef @.str.41, ptr noundef %59, ptr noundef %60)
  br label %62

62:                                               ; preds = %57, %53
  store ptr null, ptr %5, align 8
  store i32 1, ptr %11, align 4
  br label %65

63:                                               ; preds = %46, %43
  %64 = load ptr, ptr %10, align 8, !tbaa !15
  store ptr %64, ptr %5, align 8
  store i32 1, ptr %11, align 4
  br label %65

65:                                               ; preds = %63, %62, %42, %21
  call void @llvm.lifetime.end.p0(i64 8, ptr %10) #8
  %66 = load ptr, ptr %5, align 8
  ret ptr %66
}