; Function Attrs: nounwind uwtable
define internal fastcc ptr @resolve_interp(ptr noundef %0, i32 noundef %1, i32 noundef range(i32 0, 2) %2, ptr noundef %3) unnamed_addr #0 {
  %5 = icmp eq ptr %0, null
  br i1 %5, label %6, label %8

6:                                                ; preds = %4
  %7 = tail call ptr @PyInterpreterState_Get() #7
  br label %11

8:                                                ; preds = %4
  %9 = tail call ptr @_PyInterpreterState_LookUpIDObject(ptr noundef nonnull %0) #7
  %10 = icmp eq ptr %9, null
  br i1 %10, label %29, label %11

11:                                               ; preds = %8, %6
  %.0 = phi ptr [ %7, %6 ], [ %9, %8 ]
  %.not = icmp eq i32 %2, 0
  br i1 %.not, label %20, label %12

12:                                               ; preds = %11
  %13 = tail call i32 @_PyInterpreterState_IsReady(ptr noundef %.0) #7
  %.not19 = icmp eq i32 %13, 0
  br i1 %.not19, label %14, label %20

14:                                               ; preds = %12
  %15 = load ptr, ptr @PyExc_InterpreterError, align 8, !tbaa !15
  br i1 %5, label %16, label %18

16:                                               ; preds = %14
  %17 = tail call ptr (ptr, ptr, ...) @PyErr_Format(ptr noundef %15, ptr noundef nonnull @.str.38, ptr noundef %3) #7
  br label %29

18:                                               ; preds = %14
  %19 = tail call ptr (ptr, ptr, ...) @PyErr_Format(ptr noundef %15, ptr noundef nonnull @.str.39, ptr noundef %3, ptr noundef nonnull %0) #7
  br label %29

20:                                               ; preds = %12, %11
  %.not20 = icmp eq i32 %1, 0
  br i1 %.not20, label %29, label %21

21:                                               ; preds = %20
  %22 = tail call i64 @_PyInterpreterState_GetWhence(ptr noundef %.0) #7
  %.not21 = icmp eq i64 %22, 5
  br i1 %.not21, label %29, label %23

23:                                               ; preds = %21
  %24 = load ptr, ptr @PyExc_InterpreterError, align 8, !tbaa !15
  br i1 %5, label %25, label %27

25:                                               ; preds = %23
  %26 = tail call ptr (ptr, ptr, ...) @PyErr_Format(ptr noundef %24, ptr noundef nonnull @.str.40, ptr noundef %3) #7
  br label %29

27:                                               ; preds = %23
  %28 = tail call ptr (ptr, ptr, ...) @PyErr_Format(ptr noundef %24, ptr noundef nonnull @.str.41, ptr noundef %3, ptr noundef nonnull %0) #7
  br label %29

29:                                               ; preds = %20, %21, %25, %27, %16, %18, %8
  %.016 = phi ptr [ null, %8 ], [ null, %18 ], [ null, %16 ], [ null, %27 ], [ null, %25 ], [ %.0, %21 ], [ %.0, %20 ]
  ret ptr %.016
}